; Function Attrs: mustprogress uwtable
define void @_ZN5boost4json5arrayC2ERKS1_(ptr noundef nonnull align 8 dereferenceable(24) %0, ptr nocapture noundef nonnull readonly align 8 dereferenceable(24) %1) unnamed_addr #5 align 2 personality ptr @__gxx_personality_v0 {
  %3 = alloca %"class.boost::json::storage_ptr", align 8
  %4 = load i64, ptr %1, align 8, !tbaa !17
  store i64 %4, ptr %3, align 8, !tbaa !17
  %5 = and i64 %4, 1
  %.not.i.i = icmp eq i64 %5, 0
  br i1 %.not.i.i, label %_ZN5boost4json11storage_ptrC2ERKS1_.exit, label %6

6:                                                ; preds = %2
  %7 = and i64 %4, -4
  %8 = inttoptr i64 %7 to ptr
  %9 = getelementptr inbounds nuw i8, ptr %8, i64 8
  %10 = atomicrmw add ptr %9, i64 1 monotonic, align 8
  br label %_ZN5boost4json11storage_ptrC2ERKS1_.exit

_ZN5boost4json11storage_ptrC2ERKS1_.exit:         ; preds = %2, %6
  invoke void @_ZN5boost4json5arrayC2ERKS1_NS0_11storage_ptrE(ptr noundef nonnull align 8 dereferenceable(24) %0, ptr noundef nonnull align 8 dereferenceable(24) %1, ptr noundef nonnull %3)
          to label %11 unwind label %25

11:                                               ; preds = %_ZN5boost4json11storage_ptrC2ERKS1_.exit
  %12 = load i64, ptr %3, align 8, !tbaa !17
  %13 = and i64 %12, 1
  %.not.i.i4 = icmp eq i64 %13, 0
  br i1 %.not.i.i4, label %_ZN5boost4json11storage_ptrD2Ev.exit, label %14

14:                                               ; preds = %11
  %15 = and i64 %12, -4
  %16 = inttoptr i64 %15 to ptr
  %17 = getelementptr inbounds nuw i8, ptr %16, i64 8
  %18 = atomicrmw sub ptr %17, i64 1 acq_rel, align 8
  %19 = icmp ne i64 %18, 1
  %20 = icmp eq i64 %15, 0
  %or.cond.i.i = or i1 %20, %19
  br i1 %or.cond.i.i, label %_ZN5boost4json11storage_ptrD2Ev.exit, label %21

21:                                               ; preds = %14
  %22 = load ptr, ptr %16, align 8, !tbaa !19
  %23 = getelementptr inbounds i8, ptr %22, i64 8
  %24 = load ptr, ptr %23, align 8
  tail call void %24(ptr noundef nonnull align 8 dereferenceable(16) %16) #48
  br label %_ZN5boost4json11storage_ptrD2Ev.exit

_ZN5boost4json11storage_ptrD2Ev.exit:             ; preds = %11, %14, %21
  ret void

25:                                               ; preds = %_ZN5boost4json11storage_ptrC2ERKS1_.exit
  %26 = landingpad { ptr, i32 }
          cleanup
  %27 = load i64, ptr %3, align 8, !tbaa !17
  %28 = and i64 %27, 1
  %.not.i.i5 = icmp eq i64 %28, 0
  br i1 %.not.i.i5, label %_ZN5boost4json11storage_ptrD2Ev.exit7, label %29

29:                                               ; preds = %25
  %30 = and i64 %27, -4
  %31 = inttoptr i64 %30 to ptr
  %32 = getelementptr inbounds nuw i8, ptr %31, i64 8
  %33 = atomicrmw sub ptr %32, i64 1 acq_rel, align 8
  %34 = icmp ne i64 %33, 1
  %35 = icmp eq i64 %30, 0
  %or.cond.i.i6 = or i1 %35, %34
  br i1 %or.cond.i.i6, label %_ZN5boost4json11storage_ptrD2Ev.exit7, label %36

36:                                               ; preds = %29
  %37 = load ptr, ptr %31, align 8, !tbaa !19
  %38 = getelementptr inbounds i8, ptr %37, i64 8
  %39 = load ptr, ptr %38, align 8
  tail call void %39(ptr noundef nonnull align 8 dereferenceable(16) %31) #48
  br label %_ZN5boost4json11storage_ptrD2Ev.exit7

_ZN5boost4json11storage_ptrD2Ev.exit7:            ; preds = %25, %29, %36
  resume { ptr, i32 } %26
}